; Function Attrs: mustprogress optsize uwtable
define noundef ptr @PyInit_test_stl_ext() local_unnamed_addr #0 personality ptr @__gxx_personality_v0 {
  %1 = alloca %"class.nanobind::module_", align 8
  tail call void @_ZN8nanobind6detail4initEPKc(ptr noundef null) #30
  call void @llvm.lifetime.start.p0(i64 8, ptr nonnull %1) #28
  %2 = tail call noundef ptr @_ZN8nanobind6detail10module_newEPKcP11PyModuleDef(ptr noundef nonnull @.str, ptr noundef nonnull @_ZL32nanobind_module_def_test_stl_ext) #27
  store ptr %2, ptr %1, align 8
  call fastcc void @_ZL26nanobind_init_test_stl_extRN8nanobind7module_E(ptr noundef nonnull align 8 dereferenceable(8) %1) #30
  store ptr null, ptr %1, align 8, !tbaa !15
  %3 = call noundef nonnull align 8 dereferenceable(8) ptr @_ZNKR8nanobind6handle7dec_refEv(ptr noundef nonnull align 8 dereferenceable(8) %1) #27
  call void @llvm.lifetime.end.p0(i64 8, ptr nonnull %1) #28
  ret ptr %2
}